; ModuleID = '16/426.c'
source_filename = "16/426.c"
target datalayout = "e-m:e-p270:32:32-p271:32:32-p272:64:64-i64:64-f80:128-n8:16:32:64-S128"
target triple = "x86_64-pc-linux-gnu"

@.str = private unnamed_addr constant [3 x i8] c"%d\00", align 1
@.str.1 = private unnamed_addr constant [2 x i8] c"0\00", align 1

; Function Attrs: noinline nounwind uwtable
define dso_local i32 @main() #0 {
  %1 = alloca i32, align 4
  %2 = alloca i32, align 4
  %3 = alloca i32, align 4
  store i32 0, i32* %1, align 4
  %4 = call i32 (i8*, ...) @__isoc99_scanf(i8* getelementptr inbounds ([3 x i8], [3 x i8]* @.str, i64 0, i64 0), i32* %2)
  %5 = load i32, i32* %2, align 4
  %6 = icmp eq i32 %5, 0
  br i1 %6, label %7, label %9

7:                                                ; preds = %0
  %8 = call i32 (i8*, ...) @printf(i8* getelementptr inbounds ([2 x i8], [2 x i8]* @.str.1, i64 0, i64 0))
  br label %24

9:                                                ; preds = %0
  br label %10

10:                                               ; preds = %13, %9
  %11 = load i32, i32* %2, align 4
  %12 = icmp ne i32 %11, 0
  br i1 %12, label %13, label %23

13:                                               ; preds = %10
  %14 = load i32, i32* %2, align 4
  %15 = load i32, i32* %2, align 4
  %16 = sdiv i32 %15, 10
  %17 = mul nsw i32 %16, 10
  %18 = sub nsw i32 %14, %17
  store i32 %18, i32* %3, align 4
  %19 = load i32, i32* %2, align 4
  %20 = sdiv i32 %19, 10
  store i32 %20, i32* %2, align 4
  %21 = load i32, i32* %3, align 4
  %22 = call i32 (i8*, ...) @printf(i8* getelementptr inbounds ([3 x i8], [3 x i8]* @.str, i64 0, i64 0), i32 %21)
  br label %10

23:                                               ; preds = %10
  br label %24

24:                                               ; preds = %23, %7
  ret i32 0
}

declare dso_local i32 @__isoc99_scanf(i8*, ...) #1

declare dso_local i32 @printf(i8*, ...) #1


!llvm.module.flags = !{!0}
!llvm.ident = !{!1}

!0 = !{i32 1, !"wchar_size", i32 4}
!1 = !{!"clang version 10.0.0-4ubuntu1 "}
